target datalayout = "e-m:e-p270:32:32-p271:32:32-p272:64:64-i64:64-i128:128-f80:128-n8:16:32:64-S128"
target triple = "x86_64-pc-linux-gnu"

%struct.FormData_pg_class = type { i32, %struct.nameData, i32, i32, i32, i32, i32, i32, i32, i32, float, i32, i32, i8, i8, i8, i8, i16, i16, i8, i8, i8, i8, i8, i8, i8, i8, i32, i32, i32 }
%struct.nameData = type { [64 x i8] }
%struct.HeapTupleData = type { i32, %struct.ItemPointerData, i32, ptr }
%struct.ItemPointerData = type { %struct.BlockIdData, i16 }
%struct.BlockIdData = type { i16, i16 }
%struct.HeapTupleHeaderData = type { %union.anon, %struct.ItemPointerData, i16, i16, i8, [0 x i8] }
%union.anon = type { %struct.HeapTupleFields }
%struct.HeapTupleFields = type { i32, i32, %union.anon.0 }
%union.anon.0 = type { i32 }
%struct.RangeVar = type { i32, ptr, ptr, ptr, i8, i8, ptr, i32 }

@.str = private unnamed_addr constant [32 x i8] c"relation \22%s\22 cannot have rules\00", align 1
@.str.1 = private unnamed_addr constant [16 x i8] c"rewriteDefine.c\00", align 1
@allowSystemTableMods = external global i8, align 1
@.str.2 = private unnamed_addr constant [44 x i8] c"permission denied: \22%s\22 is a system catalog\00", align 1
@__func__.RangeVarCallbackForRenameRule = private unnamed_addr constant [30 x i8] c"RangeVarCallbackForRenameRule\00", align 1

; Function Attrs: inlinehint nounwind uwtable
define internal ptr @GETSTRUCT(ptr noundef %0) #6 {
  %2 = alloca ptr, align 8
  store ptr %0, ptr %2, align 8
  %3 = load ptr, ptr %2, align 8
  %4 = getelementptr inbounds nuw %struct.HeapTupleData, ptr %3, i32 0, i32 3
  %5 = load ptr, ptr %4, align 8
  %6 = load ptr, ptr %2, align 8
  %7 = getelementptr inbounds nuw %struct.HeapTupleData, ptr %6, i32 0, i32 3
  %8 = load ptr, ptr %7, align 8
  %9 = getelementptr inbounds nuw %struct.HeapTupleHeaderData, ptr %8, i32 0, i32 4
  %10 = load i8, ptr %9, align 2
  %11 = zext i8 %10 to i32
  %12 = sext i32 %11 to i64
  %13 = getelementptr inbounds i8, ptr %5, i64 %12
  ret ptr %13
}

; Function Attrs: inlinehint nounwind uwtable
define internal i64 @ObjectIdGetDatum(i32 noundef %0) #6 {
  %2 = alloca i32, align 4
  store i32 %0, ptr %2, align 4
  %3 = load i32, ptr %2, align 4
  %4 = zext i32 %3 to i64
  ret i64 %4
}

; Function Attrs: nounwind uwtable
define internal void @RangeVarCallbackForRenameRule(ptr noundef %0, i32 noundef %1, i32 noundef %2, ptr noundef %3) #0 {
  %5 = alloca ptr, align 8
  %6 = alloca i32, align 4
  %7 = alloca i32, align 4
  %8 = alloca ptr, align 8
  %9 = alloca ptr, align 8
  %10 = alloca ptr, align 8
  %11 = alloca i32, align 4
  store ptr %0, ptr %5, align 8
  store i32 %1, ptr %6, align 4
  store i32 %2, ptr %7, align 4
  store ptr %3, ptr %8, align 8
  call void @llvm.lifetime.start.p0(i64 8, ptr %9) #8
  call void @llvm.lifetime.start.p0(i64 8, ptr %10) #8
  %12 = load i32, ptr %6, align 4
  %13 = call i64 @ObjectIdGetDatum(i32 noundef %12)
  %14 = call ptr @SearchSysCache1(i32 noundef 57, i64 noundef %13)
  store ptr %14, ptr %9, align 8
  %15 = load ptr, ptr %9, align 8
  %16 = icmp ne ptr %15, null
  br i1 %16, label %18, label %17

17:                                               ; preds = %4
  store i32 1, ptr %11, align 4
  br label %92

18:                                               ; preds = %4
  %19 = load ptr, ptr %9, align 8
  %20 = call ptr @GETSTRUCT(ptr noundef %19)
  store ptr %20, ptr %10, align 8
  %21 = load ptr, ptr %10, align 8
  %22 = getelementptr inbounds nuw %struct.FormData_pg_class, ptr %21, i32 0, i32 16
  %23 = load i8, ptr %22, align 1
  %24 = sext i8 %23 to i32
  %25 = icmp ne i32 %24, 114
  br i1 %25, label %26, label %57

26:                                               ; preds = %18
  %27 = load ptr, ptr %10, align 8
  %28 = getelementptr inbounds nuw %struct.FormData_pg_class, ptr %27, i32 0, i32 16
  %29 = load i8, ptr %28, align 1
  %30 = sext i8 %29 to i32
  %31 = icmp ne i32 %30, 118
  br i1 %31, label %32, label %57

32:                                               ; preds = %26
  %33 = load ptr, ptr %10, align 8
  %34 = getelementptr inbounds nuw %struct.FormData_pg_class, ptr %33, i32 0, i32 16
  %35 = load i8, ptr %34, align 1
  %36 = sext i8 %35 to i32
  %37 = icmp ne i32 %36, 112
  br i1 %37, label %38, label %57

38:                                               ; preds = %32
  br label %39

39:                                               ; preds = %38
  br i1 true, label %40, label %42

40:                                               ; preds = %39
  %41 = call zeroext i1 @errstart_cold(i32 noundef 21, ptr noundef null) #9
  br i1 %41, label %44, label %54

42:                                               ; preds = %39
  %43 = call zeroext i1 @errstart(i32 noundef 21, ptr noundef null)
  br i1 %43, label %44, label %54

44:                                               ; preds = %42, %40
  %45 = call i32 @errcode(i32 noundef 151027844)
  %46 = load ptr, ptr %5, align 8
  %47 = getelementptr inbounds nuw %struct.RangeVar, ptr %46, i32 0, i32 3
  %48 = load ptr, ptr %47, align 8
  %49 = call i32 (ptr, ...) @errmsg(ptr noundef @.str, ptr noundef %48)
  %50 = load ptr, ptr %10, align 8
  %51 = getelementptr inbounds nuw %struct.FormData_pg_class, ptr %50, i32 0, i32 16
  %52 = load i8, ptr %51, align 1
  %53 = call i32 @errdetail_relkind_not_supported(i8 noundef signext %52)
  call void @errfinish(ptr noundef @.str.1, i32 noundef 774, ptr noundef @__func__.RangeVarCallbackForRenameRule)
  br label %54

54:                                               ; preds = %44, %42, %40
  unreachable

55:                                               ; No predecessors!
  br label %56

56:                                               ; preds = %55
  br label %57

57:                                               ; preds = %56, %32, %26, %18
  %58 = load i8, ptr @allowSystemTableMods, align 1, !range !4, !noundef !5
  %59 = trunc i8 %58 to i1
  br i1 %59, label %79, label %60

60:                                               ; preds = %57
  %61 = load i32, ptr %6, align 4
  %62 = load ptr, ptr %10, align 8
  %63 = call zeroext i1 @IsSystemClass(i32 noundef %61, ptr noundef %62)
  br i1 %63, label %64, label %79

64:                                               ; preds = %60
  br label %65

65:                                               ; preds = %64
  br i1 true, label %66, label %68

66:                                               ; preds = %65
  %67 = call zeroext i1 @errstart_cold(i32 noundef 21, ptr noundef null) #9
  br i1 %67, label %70, label %76

68:                                               ; preds = %65
  %69 = call zeroext i1 @errstart(i32 noundef 21, ptr noundef null)
  br i1 %69, label %70, label %76

70:                                               ; preds = %68, %66
  %71 = call i32 @errcode(i32 noundef 16797828)
  %72 = load ptr, ptr %5, align 8
  %73 = getelementptr inbounds nuw %struct.RangeVar, ptr %72, i32 0, i32 3
  %74 = load ptr, ptr %73, align 8
  %75 = call i32 (ptr, ...) @errmsg(ptr noundef @.str.2, ptr noundef %74)
  call void @errfinish(ptr noundef @.str.1, i32 noundef 780, ptr noundef @__func__.RangeVarCallbackForRenameRule)
  br label %76

76:                                               ; preds = %70, %68, %66
  unreachable

77:                                               ; No predecessors!
  br label %78

78:                                               ; preds = %77
  br label %79

79:                                               ; preds = %78, %60, %57
  %80 = load i32, ptr %6, align 4
  %81 = call i32 @GetUserId()
  %82 = call zeroext i1 @object_ownercheck(i32 noundef 1259, i32 noundef %80, i32 noundef %81)
  br i1 %82, label %90, label %83

83:                                               ; preds = %79
  %84 = load i32, ptr %6, align 4
  %85 = call signext i8 @get_rel_relkind(i32 noundef %84)
  %86 = call i32 @get_relkind_objtype(i8 noundef signext %85)
  %87 = load ptr, ptr %5, align 8
  %88 = getelementptr inbounds nuw %struct.RangeVar, ptr %87, i32 0, i32 3
  %89 = load ptr, ptr %88, align 8
  call void @aclcheck_error(i32 noundef 2, i32 noundef %86, ptr noundef %89)
  br label %90

90:                                               ; preds = %83, %79
  %91 = load ptr, ptr %9, align 8
  call void @ReleaseSysCache(ptr noundef %91)
  store i32 0, ptr %11, align 4
  br label %92

92:                                               ; preds = %90, %17
  call void @llvm.lifetime.end.p0(i64 8, ptr %10) #8
  call void @llvm.lifetime.end.p0(i64 8, ptr %9) #8
  %93 = load i32, ptr %11, align 4
  switch i32 %93, label %95 [
    i32 0, label %94
    i32 1, label %94
  ]

94:                                               ; preds = %92, %92
  ret void

95:                                               ; preds = %92
  unreachable
}