; Function Attrs: nounwind uwtable
define internal void @RangeVarCallbackForRenameRule(ptr noundef readonly captures(none) %0, i32 noundef %1, i32 %2, ptr readnone captures(none) %3) #0 {
  %5 = zext i32 %1 to i64
  %6 = tail call ptr @SearchSysCache1(i32 noundef 57, i64 noundef %5) #6
  %.not = icmp eq ptr %6, null
  br i1 %.not, label %43, label %7

7:                                                ; preds = %4
  %8 = getelementptr i8, ptr %6, i64 16
  %.val = load ptr, ptr %8, align 8
  %9 = getelementptr inbounds nuw i8, ptr %.val, i64 22
  %10 = load i8, ptr %9, align 2
  %11 = zext i8 %10 to i64
  %12 = getelementptr inbounds nuw i8, ptr %.val, i64 %11
  %13 = getelementptr inbounds nuw i8, ptr %12, i64 115
  %14 = load i8, ptr %13, align 1
  switch i8 %14, label %15 [
    i8 114, label %23
    i8 118, label %23
    i8 112, label %23
  ]

15:                                               ; preds = %7
  %16 = tail call zeroext i1 @errstart_cold(i32 noundef 21, ptr noundef null) #7
  tail call void @llvm.assume(i1 %16)
  %17 = tail call i32 @errcode(i32 noundef 151027844) #6
  %18 = getelementptr inbounds nuw i8, ptr %0, i64 24
  %19 = load ptr, ptr %18, align 8
  %20 = tail call i32 (ptr, ...) @errmsg(ptr noundef nonnull @.str, ptr noundef %19) #6
  %21 = load i8, ptr %13, align 1
  %22 = tail call i32 @errdetail_relkind_not_supported(i8 noundef signext %21) #6
  tail call void @errfinish(ptr noundef nonnull @.str.1, i32 noundef 774, ptr noundef nonnull @__func__.RangeVarCallbackForRenameRule) #6
  unreachable

23:                                               ; preds = %7, %7, %7
  %24 = load i8, ptr @allowSystemTableMods, align 1, !range !4, !noundef !5
  %25 = trunc nuw i8 %24 to i1
  br i1 %25, label %34, label %26

26:                                               ; preds = %23
  %27 = tail call zeroext i1 @IsSystemClass(i32 noundef %1, ptr noundef nonnull %12) #6
  br i1 %27, label %28, label %34

28:                                               ; preds = %26
  %29 = tail call zeroext i1 @errstart_cold(i32 noundef 21, ptr noundef null) #7
  tail call void @llvm.assume(i1 %29)
  %30 = tail call i32 @errcode(i32 noundef 16797828) #6
  %31 = getelementptr inbounds nuw i8, ptr %0, i64 24
  %32 = load ptr, ptr %31, align 8
  %33 = tail call i32 (ptr, ...) @errmsg(ptr noundef nonnull @.str.2, ptr noundef %32) #6
  tail call void @errfinish(ptr noundef nonnull @.str.1, i32 noundef 780, ptr noundef nonnull @__func__.RangeVarCallbackForRenameRule) #6
  unreachable

34:                                               ; preds = %26, %23
  %35 = tail call i32 @GetUserId() #6
  %36 = tail call zeroext i1 @object_ownercheck(i32 noundef 1259, i32 noundef %1, i32 noundef %35) #6
  br i1 %36, label %42, label %37

37:                                               ; preds = %34
  %38 = tail call signext i8 @get_rel_relkind(i32 noundef %1) #6
  %39 = tail call i32 @get_relkind_objtype(i8 noundef signext %38) #6
  %40 = getelementptr inbounds nuw i8, ptr %0, i64 24
  %41 = load ptr, ptr %40, align 8
  tail call void @aclcheck_error(i32 noundef 2, i32 noundef %39, ptr noundef %41) #6
  br label %42

42:                                               ; preds = %37, %34
  tail call void @ReleaseSysCache(ptr noundef nonnull %6) #6
  br label %43

43:                                               ; preds = %4, %42
  ret void
}